target datalayout = "e-m:e-p270:32:32-p271:32:32-p272:64:64-i64:64-i128:128-f80:128-n8:16:32:64-S128"
target triple = "x86_64-pc-linux-gnu"

%struct.H5G_loc_t = type { ptr, ptr }
%struct.H5VL_loc_params_t = type { i32, i32, %union.anon }
%union.anon = type { %struct.H5VL_loc_by_idx }
%struct.H5VL_loc_by_idx = type { ptr, i32, i32, i64, i64 }
%struct.H5O_loc_t = type { ptr, i64, i8 }
%struct.H5VL_loc_by_name = type { ptr, i64 }

@.str = private unnamed_addr constant [109 x i8] c"generated/home/dtcxzyw/WorkSpace/Projects/compilers/llvm-opt-benchmark/bench/hdf5/hdf5/src/H5VLnative_attr.c\00", align 1
@__func__.H5VL__native_attr_create = private unnamed_addr constant [25 x i8] c"H5VL__native_attr_create\00", align 1
@H5E_ARGS_g = external global i64, align 8
@H5E_BADTYPE_g = external global i64, align 8
@.str.1 = private unnamed_addr constant [26 x i8] c"not a file or file object\00", align 1
@H5E_WRITEERROR_g = external global i64, align 8
@.str.2 = private unnamed_addr constant [24 x i8] c"no write intent on file\00", align 1
@H5P_CLS_ATTRIBUTE_ACCESS_ID_g = external global i64, align 8
@.str.3 = private unnamed_addr constant [46 x i8] c"AAPL is not an attribute access property list\00", align 1
@.str.4 = private unnamed_addr constant [15 x i8] c"not a datatype\00", align 1
@.str.5 = private unnamed_addr constant [17 x i8] c"not a data space\00", align 1
@H5E_ATTR_g = external global i64, align 8
@H5E_CANTINIT_g = external global i64, align 8
@.str.6 = private unnamed_addr constant [27 x i8] c"unable to create attribute\00", align 1
@H5E_VOL_g = external global i64, align 8
@H5E_UNSUPPORTED_g = external global i64, align 8
@.str.7 = private unnamed_addr constant [36 x i8] c"unknown attribute create parameters\00", align 1
@H5E_CANTRELEASE_g = external global i64, align 8
@.str.8 = private unnamed_addr constant [20 x i8] c"can't free location\00", align 1

; Function Attrs: nounwind uwtable
define ptr @H5VL__native_attr_create(ptr noundef %0, ptr noundef %1, ptr noundef %2, i64 noundef %3, i64 noundef %4, i64 noundef %5, i64 noundef %6, i64 noundef %7, ptr noundef %8) #0 {
  %10 = alloca ptr, align 8
  %11 = alloca ptr, align 8
  %12 = alloca ptr, align 8
  %13 = alloca i64, align 8
  %14 = alloca i64, align 8
  %15 = alloca i64, align 8
  %16 = alloca i64, align 8
  %17 = alloca i64, align 8
  %18 = alloca ptr, align 8
  %19 = alloca ptr, align 8
  %20 = alloca %struct.H5G_loc_t, align 8
  %21 = alloca %struct.H5G_loc_t, align 8
  %22 = alloca i8, align 1
  %23 = alloca ptr, align 8
  %24 = alloca ptr, align 8
  %25 = alloca ptr, align 8
  %26 = alloca ptr, align 8
  %27 = alloca ptr, align 8
  %28 = alloca i8, align 1
  store ptr %0, ptr %10, align 8
  store ptr %1, ptr %11, align 8
  store ptr %2, ptr %12, align 8
  store i64 %3, ptr %13, align 8
  store i64 %4, ptr %14, align 8
  store i64 %5, ptr %15, align 8
  store i64 %6, ptr %16, align 8
  store i64 %7, ptr %17, align 8
  store ptr %8, ptr %18, align 8
  store i8 0, ptr %22, align 1
  store ptr null, ptr %26, align 8
  store ptr null, ptr %27, align 8
  store i8 0, ptr %28, align 1
  %29 = load ptr, ptr %10, align 8
  %30 = load ptr, ptr %11, align 8
  %31 = getelementptr inbounds %struct.H5VL_loc_params_t, ptr %30, i32 0, i32 0
  %32 = load i32, ptr %31, align 8
  %33 = call i32 @H5G_loc_real(ptr noundef %29, i32 noundef %32, ptr noundef %20)
  %34 = icmp slt i32 %33, 0
  br i1 %34, label %35, label %50

35:                                               ; preds = %9
  br label %36

36:                                               ; preds = %35
  br label %37

37:                                               ; preds = %36
  br label %38

38:                                               ; preds = %37
  %39 = load i64, ptr @H5E_ARGS_g, align 8
  %40 = load i64, ptr @H5E_BADTYPE_g, align 8
  %41 = call i32 (ptr, ptr, i32, i64, i64, ptr, ...) @H5E_printf_stack(ptr noundef @.str, ptr noundef @__func__.H5VL__native_attr_create, i32 noundef 92, i64 noundef %39, i64 noundef %40, ptr noundef @.str.1)
  br label %42

42:                                               ; preds = %38
  store i8 1, ptr %28, align 1
  %43 = load i8, ptr %28, align 1
  %44 = trunc i8 %43 to i1
  %45 = zext i1 %44 to i8
  store i8 %45, ptr %28, align 1
  br label %46

46:                                               ; preds = %42
  br label %47

47:                                               ; preds = %46
  store ptr null, ptr %27, align 8
  br label %211

48:                                               ; No predecessors!
  br label %49

49:                                               ; preds = %48
  br label %50

50:                                               ; preds = %49, %9
  %51 = getelementptr inbounds %struct.H5G_loc_t, ptr %20, i32 0, i32 0
  %52 = load ptr, ptr %51, align 8
  %53 = getelementptr inbounds %struct.H5O_loc_t, ptr %52, i32 0, i32 0
  %54 = load ptr, ptr %53, align 8
  %55 = call i32 @H5F_get_intent(ptr noundef %54)
  %56 = and i32 %55, 1
  %57 = icmp eq i32 0, %56
  br i1 %57, label %58, label %73

58:                                               ; preds = %50
  br label %59

59:                                               ; preds = %58
  br label %60

60:                                               ; preds = %59
  br label %61

61:                                               ; preds = %60
  %62 = load i64, ptr @H5E_ARGS_g, align 8
  %63 = load i64, ptr @H5E_WRITEERROR_g, align 8
  %64 = call i32 (ptr, ptr, i32, i64, i64, ptr, ...) @H5E_printf_stack(ptr noundef @.str, ptr noundef @__func__.H5VL__native_attr_create, i32 noundef 94, i64 noundef %62, i64 noundef %63, ptr noundef @.str.2)
  br label %65

65:                                               ; preds = %61
  store i8 1, ptr %28, align 1
  %66 = load i8, ptr %28, align 1
  %67 = trunc i8 %66 to i1
  %68 = zext i1 %67 to i8
  store i8 %68, ptr %28, align 1
  br label %69

69:                                               ; preds = %65
  br label %70

70:                                               ; preds = %69
  store ptr null, ptr %27, align 8
  br label %211

71:                                               ; No predecessors!
  br label %72

72:                                               ; preds = %71
  br label %73

73:                                               ; preds = %72, %50
  %74 = load i64, ptr %16, align 8
  %75 = load i64, ptr @H5P_CLS_ATTRIBUTE_ACCESS_ID_g, align 8
  %76 = call ptr @H5P_object_verify(i64 noundef %74, i64 noundef %75)
  store ptr %76, ptr %19, align 8
  %77 = icmp eq ptr null, %76
  br i1 %77, label %78, label %93

78:                                               ; preds = %73
  br label %79

79:                                               ; preds = %78
  br label %80

80:                                               ; preds = %79
  br label %81

81:                                               ; preds = %80
  %82 = load i64, ptr @H5E_ARGS_g, align 8
  %83 = load i64, ptr @H5E_BADTYPE_g, align 8
  %84 = call i32 (ptr, ptr, i32, i64, i64, ptr, ...) @H5E_printf_stack(ptr noundef @.str, ptr noundef @__func__.H5VL__native_attr_create, i32 noundef 97, i64 noundef %82, i64 noundef %83, ptr noundef @.str.3)
  br label %85

85:                                               ; preds = %81
  store i8 1, ptr %28, align 1
  %86 = load i8, ptr %28, align 1
  %87 = trunc i8 %86 to i1
  %88 = zext i1 %87 to i8
  store i8 %88, ptr %28, align 1
  br label %89

89:                                               ; preds = %85
  br label %90

90:                                               ; preds = %89
  store ptr null, ptr %27, align 8
  br label %211

91:                                               ; No predecessors!
  br label %92

92:                                               ; preds = %91
  br label %93

93:                                               ; preds = %92, %73
  %94 = load i64, ptr %13, align 8
  %95 = call ptr @H5I_object_verify(i64 noundef %94, i32 noundef 3)
  store ptr %95, ptr %24, align 8
  %96 = icmp eq ptr null, %95
  br i1 %96, label %97, label %112

97:                                               ; preds = %93
  br label %98

98:                                               ; preds = %97
  br label %99

99:                                               ; preds = %98
  br label %100

100:                                              ; preds = %99
  %101 = load i64, ptr @H5E_ARGS_g, align 8
  %102 = load i64, ptr @H5E_BADTYPE_g, align 8
  %103 = call i32 (ptr, ptr, i32, i64, i64, ptr, ...) @H5E_printf_stack(ptr noundef @.str, ptr noundef @__func__.H5VL__native_attr_create, i32 noundef 100, i64 noundef %101, i64 noundef %102, ptr noundef @.str.4)
  br label %104

104:                                              ; preds = %100
  store i8 1, ptr %28, align 1
  %105 = load i8, ptr %28, align 1
  %106 = trunc i8 %105 to i1
  %107 = zext i1 %106 to i8
  store i8 %107, ptr %28, align 1
  br label %108

108:                                              ; preds = %104
  br label %109

109:                                              ; preds = %108
  store ptr null, ptr %27, align 8
  br label %211

110:                                              ; No predecessors!
  br label %111

111:                                              ; preds = %110
  br label %112

112:                                              ; preds = %111, %93
  %113 = load ptr, ptr %24, align 8
  %114 = call ptr @H5T_get_actual_type(ptr noundef %113)
  store ptr %114, ptr %23, align 8
  %115 = load i64, ptr %14, align 8
  %116 = call ptr @H5I_object_verify(i64 noundef %115, i32 noundef 4)
  store ptr %116, ptr %25, align 8
  %117 = icmp eq ptr null, %116
  br i1 %117, label %118, label %133

118:                                              ; preds = %112
  br label %119

119:                                              ; preds = %118
  br label %120

120:                                              ; preds = %119
  br label %121

121:                                              ; preds = %120
  %122 = load i64, ptr @H5E_ARGS_g, align 8
  %123 = load i64, ptr @H5E_BADTYPE_g, align 8
  %124 = call i32 (ptr, ptr, i32, i64, i64, ptr, ...) @H5E_printf_stack(ptr noundef @.str, ptr noundef @__func__.H5VL__native_attr_create, i32 noundef 105, i64 noundef %122, i64 noundef %123, ptr noundef @.str.5)
  br label %125

125:                                              ; preds = %121
  store i8 1, ptr %28, align 1
  %126 = load i8, ptr %28, align 1
  %127 = trunc i8 %126 to i1
  %128 = zext i1 %127 to i8
  store i8 %128, ptr %28, align 1
  br label %129

129:                                              ; preds = %125
  br label %130

130:                                              ; preds = %129
  store ptr null, ptr %27, align 8
  br label %211

131:                                              ; No predecessors!
  br label %132

132:                                              ; preds = %131
  br label %133

133:                                              ; preds = %132, %112
  %134 = load ptr, ptr %11, align 8
  %135 = getelementptr inbounds %struct.H5VL_loc_params_t, ptr %134, i32 0, i32 1
  %136 = load i32, ptr %135, align 4
  %137 = icmp eq i32 %136, 0
  br i1 %137, label %138, label %161

138:                                              ; preds = %133
  %139 = load ptr, ptr %12, align 8
  %140 = load ptr, ptr %23, align 8
  %141 = load ptr, ptr %25, align 8
  %142 = load i64, ptr %15, align 8
  %143 = call ptr @H5A__create(ptr noundef %20, ptr noundef %139, ptr noundef %140, ptr noundef %141, i64 noundef %142)
  store ptr %143, ptr %26, align 8
  %144 = icmp eq ptr null, %143
  br i1 %144, label %145, label %160

145:                                              ; preds = %138
  br label %146

146:                                              ; preds = %145
  br label %147

147:                                              ; preds = %146
  br label %148

148:                                              ; preds = %147
  %149 = load i64, ptr @H5E_ATTR_g, align 8
  %150 = load i64, ptr @H5E_CANTINIT_g, align 8
  %151 = call i32 (ptr, ptr, i32, i64, i64, ptr, ...) @H5E_printf_stack(ptr noundef @.str, ptr noundef @__func__.H5VL__native_attr_create, i32 noundef 111, i64 noundef %149, i64 noundef %150, ptr noundef @.str.6)
  br label %152

152:                                              ; preds = %148
  store i8 1, ptr %28, align 1
  %153 = load i8, ptr %28, align 1
  %154 = trunc i8 %153 to i1
  %155 = zext i1 %154 to i8
  store i8 %155, ptr %28, align 1
  br label %156

156:                                              ; preds = %152
  br label %157

157:                                              ; preds = %156
  store ptr null, ptr %27, align 8
  br label %211

158:                                              ; No predecessors!
  br label %159

159:                                              ; preds = %158
  br label %160

160:                                              ; preds = %159, %138
  br label %209

161:                                              ; preds = %133
  %162 = load ptr, ptr %11, align 8
  %163 = getelementptr inbounds %struct.H5VL_loc_params_t, ptr %162, i32 0, i32 1
  %164 = load i32, ptr %163, align 4
  %165 = icmp eq i32 %164, 1
  br i1 %165, label %166, label %193

166:                                              ; preds = %161
  %167 = load ptr, ptr %11, align 8
  %168 = getelementptr inbounds %struct.H5VL_loc_params_t, ptr %167, i32 0, i32 2
  %169 = getelementptr inbounds %struct.H5VL_loc_by_name, ptr %168, i32 0, i32 0
  %170 = load ptr, ptr %169, align 8
  %171 = load ptr, ptr %12, align 8
  %172 = load ptr, ptr %23, align 8
  %173 = load ptr, ptr %25, align 8
  %174 = load i64, ptr %15, align 8
  %175 = call ptr @H5A__create_by_name(ptr noundef %20, ptr noundef %170, ptr noundef %171, ptr noundef %172, ptr noundef %173, i64 noundef %174)
  store ptr %175, ptr %26, align 8
  %176 = icmp eq ptr null, %175
  br i1 %176, label %177, label %192

177:                                              ; preds = %166
  br label %178

178:                                              ; preds = %177
  br label %179

179:                                              ; preds = %178
  br label %180

180:                                              ; preds = %179
  %181 = load i64, ptr @H5E_ATTR_g, align 8
  %182 = load i64, ptr @H5E_CANTINIT_g, align 8
  %183 = call i32 (ptr, ptr, i32, i64, i64, ptr, ...) @H5E_printf_stack(ptr noundef @.str, ptr noundef @__func__.H5VL__native_attr_create, i32 noundef 117, i64 noundef %181, i64 noundef %182, ptr noundef @.str.6)
  br label %184

184:                                              ; preds = %180
  store i8 1, ptr %28, align 1
  %185 = load i8, ptr %28, align 1
  %186 = trunc i8 %185 to i1
  %187 = zext i1 %186 to i8
  store i8 %187, ptr %28, align 1
  br label %188

188:                                              ; preds = %184
  br label %189

189:                                              ; preds = %188
  store ptr null, ptr %27, align 8
  br label %211

190:                                              ; No predecessors!
  br label %191

191:                                              ; preds = %190
  br label %192

192:                                              ; preds = %191, %166
  br label %208

193:                                              ; preds = %161
  br label %194

194:                                              ; preds = %193
  br label %195

195:                                              ; preds = %194
  br label %196

196:                                              ; preds = %195
  %197 = load i64, ptr @H5E_VOL_g, align 8
  %198 = load i64, ptr @H5E_UNSUPPORTED_g, align 8
  %199 = call i32 (ptr, ptr, i32, i64, i64, ptr, ...) @H5E_printf_stack(ptr noundef @.str, ptr noundef @__func__.H5VL__native_attr_create, i32 noundef 120, i64 noundef %197, i64 noundef %198, ptr noundef @.str.7)
  br label %200

200:                                              ; preds = %196
  store i8 1, ptr %28, align 1
  %201 = load i8, ptr %28, align 1
  %202 = trunc i8 %201 to i1
  %203 = zext i1 %202 to i8
  store i8 %203, ptr %28, align 1
  br label %204

204:                                              ; preds = %200
  br label %205

205:                                              ; preds = %204
  store ptr null, ptr %27, align 8
  br label %211

206:                                              ; No predecessors!
  br label %207

207:                                              ; preds = %206
  br label %208

208:                                              ; preds = %207, %192
  br label %209

209:                                              ; preds = %208, %160
  %210 = load ptr, ptr %26, align 8
  store ptr %210, ptr %27, align 8
  br label %211

211:                                              ; preds = %209, %205, %189, %157, %130, %109, %90, %70, %47
  %212 = load i8, ptr %22, align 1
  %213 = trunc i8 %212 to i1
  br i1 %213, label %214, label %230

214:                                              ; preds = %211
  %215 = call i32 @H5G_loc_free(ptr noundef %21)
  %216 = icmp slt i32 %215, 0
  br i1 %216, label %217, label %230

217:                                              ; preds = %214
  br label %218

218:                                              ; preds = %217
  br label %219

219:                                              ; preds = %218
  br label %220

220:                                              ; preds = %219
  %221 = load i64, ptr @H5E_ATTR_g, align 8
  %222 = load i64, ptr @H5E_CANTRELEASE_g, align 8
  %223 = call i32 (ptr, ptr, i32, i64, i64, ptr, ...) @H5E_printf_stack(ptr noundef @.str, ptr noundef @__func__.H5VL__native_attr_create, i32 noundef 127, i64 noundef %221, i64 noundef %222, ptr noundef @.str.8)
  br label %224

224:                                              ; preds = %220
  store i8 1, ptr %28, align 1
  %225 = load i8, ptr %28, align 1
  %226 = trunc i8 %225 to i1
  %227 = zext i1 %226 to i8
  store i8 %227, ptr %28, align 1
  br label %228

228:                                              ; preds = %224
  store ptr null, ptr %27, align 8
  br label %229

229:                                              ; preds = %228
  br label %230

230:                                              ; preds = %229, %214, %211
  %231 = load ptr, ptr %27, align 8
  ret ptr %231
}