; Function Attrs: nounwind uwtable
define ptr @H5VL__native_attr_create(ptr noundef %0, ptr nocapture noundef readonly %1, ptr noundef %2, i64 noundef %3, i64 noundef %4, i64 noundef %5, i64 noundef %6, i64 noundef %7, ptr nocapture noundef readnone %8) local_unnamed_addr #0 {
  %10 = alloca %struct.H5G_loc_t, align 8
  %11 = load i32, ptr %1, align 8
  %12 = call i32 @H5G_loc_real(ptr noundef %0, i32 noundef %11, ptr noundef nonnull %10) #5
  %13 = icmp slt i32 %12, 0
  br i1 %13, label %14, label %18

14:                                               ; preds = %9
  %15 = load i64, ptr @H5E_ARGS_g, align 8
  %16 = load i64, ptr @H5E_BADTYPE_g, align 8
  %17 = call i32 (ptr, ptr, i32, i64, i64, ptr, ...) @H5E_printf_stack(ptr noundef nonnull @.str, ptr noundef nonnull @__func__.H5VL__native_attr_create, i32 noundef 92, i64 noundef %15, i64 noundef %16, ptr noundef nonnull @.str.1) #5
  br label %74

18:                                               ; preds = %9
  %19 = load ptr, ptr %10, align 8
  %20 = load ptr, ptr %19, align 8
  %21 = call i32 @H5F_get_intent(ptr noundef %20) #5
  %22 = and i32 %21, 1
  %23 = icmp eq i32 %22, 0
  br i1 %23, label %24, label %28

24:                                               ; preds = %18
  %25 = load i64, ptr @H5E_ARGS_g, align 8
  %26 = load i64, ptr @H5E_WRITEERROR_g, align 8
  %27 = call i32 (ptr, ptr, i32, i64, i64, ptr, ...) @H5E_printf_stack(ptr noundef nonnull @.str, ptr noundef nonnull @__func__.H5VL__native_attr_create, i32 noundef 94, i64 noundef %25, i64 noundef %26, ptr noundef nonnull @.str.2) #5
  br label %74

28:                                               ; preds = %18
  %29 = load i64, ptr @H5P_CLS_ATTRIBUTE_ACCESS_ID_g, align 8
  %30 = call ptr @H5P_object_verify(i64 noundef %6, i64 noundef %29) #5
  %31 = icmp eq ptr %30, null
  br i1 %31, label %32, label %36

32:                                               ; preds = %28
  %33 = load i64, ptr @H5E_ARGS_g, align 8
  %34 = load i64, ptr @H5E_BADTYPE_g, align 8
  %35 = call i32 (ptr, ptr, i32, i64, i64, ptr, ...) @H5E_printf_stack(ptr noundef nonnull @.str, ptr noundef nonnull @__func__.H5VL__native_attr_create, i32 noundef 97, i64 noundef %33, i64 noundef %34, ptr noundef nonnull @.str.3) #5
  br label %74

36:                                               ; preds = %28
  %37 = call ptr @H5I_object_verify(i64 noundef %3, i32 noundef 3) #5
  %38 = icmp eq ptr %37, null
  br i1 %38, label %39, label %43

39:                                               ; preds = %36
  %40 = load i64, ptr @H5E_ARGS_g, align 8
  %41 = load i64, ptr @H5E_BADTYPE_g, align 8
  %42 = call i32 (ptr, ptr, i32, i64, i64, ptr, ...) @H5E_printf_stack(ptr noundef nonnull @.str, ptr noundef nonnull @__func__.H5VL__native_attr_create, i32 noundef 100, i64 noundef %40, i64 noundef %41, ptr noundef nonnull @.str.4) #5
  br label %74

43:                                               ; preds = %36
  %44 = call ptr @H5T_get_actual_type(ptr noundef nonnull %37) #5
  %45 = call ptr @H5I_object_verify(i64 noundef %4, i32 noundef 4) #5
  %46 = icmp eq ptr %45, null
  br i1 %46, label %47, label %51

47:                                               ; preds = %43
  %48 = load i64, ptr @H5E_ARGS_g, align 8
  %49 = load i64, ptr @H5E_BADTYPE_g, align 8
  %50 = call i32 (ptr, ptr, i32, i64, i64, ptr, ...) @H5E_printf_stack(ptr noundef nonnull @.str, ptr noundef nonnull @__func__.H5VL__native_attr_create, i32 noundef 105, i64 noundef %48, i64 noundef %49, ptr noundef nonnull @.str.5) #5
  br label %74

51:                                               ; preds = %43
  %52 = getelementptr inbounds i8, ptr %1, i64 4
  %53 = load i32, ptr %52, align 4
  switch i32 %53, label %70 [
    i32 0, label %54
    i32 1, label %61
  ]

54:                                               ; preds = %51
  %55 = call ptr @H5A__create(ptr noundef nonnull %10, ptr noundef %2, ptr noundef %44, ptr noundef nonnull %45, i64 noundef %5) #5
  %56 = icmp eq ptr %55, null
  br i1 %56, label %57, label %74

57:                                               ; preds = %54
  %58 = load i64, ptr @H5E_ATTR_g, align 8
  %59 = load i64, ptr @H5E_CANTINIT_g, align 8
  %60 = call i32 (ptr, ptr, i32, i64, i64, ptr, ...) @H5E_printf_stack(ptr noundef nonnull @.str, ptr noundef nonnull @__func__.H5VL__native_attr_create, i32 noundef 111, i64 noundef %58, i64 noundef %59, ptr noundef nonnull @.str.6) #5
  br label %74

61:                                               ; preds = %51
  %62 = getelementptr inbounds i8, ptr %1, i64 8
  %63 = load ptr, ptr %62, align 8
  %64 = call ptr @H5A__create_by_name(ptr noundef nonnull %10, ptr noundef %63, ptr noundef %2, ptr noundef %44, ptr noundef nonnull %45, i64 noundef %5) #5
  %65 = icmp eq ptr %64, null
  br i1 %65, label %66, label %74

66:                                               ; preds = %61
  %67 = load i64, ptr @H5E_ATTR_g, align 8
  %68 = load i64, ptr @H5E_CANTINIT_g, align 8
  %69 = call i32 (ptr, ptr, i32, i64, i64, ptr, ...) @H5E_printf_stack(ptr noundef nonnull @.str, ptr noundef nonnull @__func__.H5VL__native_attr_create, i32 noundef 117, i64 noundef %67, i64 noundef %68, ptr noundef nonnull @.str.6) #5
  br label %74

70:                                               ; preds = %51
  %71 = load i64, ptr @H5E_VOL_g, align 8
  %72 = load i64, ptr @H5E_UNSUPPORTED_g, align 8
  %73 = call i32 (ptr, ptr, i32, i64, i64, ptr, ...) @H5E_printf_stack(ptr noundef nonnull @.str, ptr noundef nonnull @__func__.H5VL__native_attr_create, i32 noundef 120, i64 noundef %71, i64 noundef %72, ptr noundef nonnull @.str.7) #5
  br label %74

74:                                               ; preds = %14, %24, %32, %39, %47, %57, %66, %70, %61, %54
  %.0 = phi ptr [ null, %14 ], [ null, %24 ], [ null, %32 ], [ null, %39 ], [ null, %47 ], [ null, %57 ], [ null, %66 ], [ null, %70 ], [ %55, %54 ], [ %64, %61 ]
  ret ptr %.0
}